; Function Attrs: mustprogress uwtable
define hidden noundef ptr @pj_vandg4(ptr noundef writeonly %0) local_unnamed_addr #0 {
  %.not = icmp eq ptr %0, null
  br i1 %.not, label %5, label %2

2:                                                ; preds = %1
  %3 = getelementptr inbounds nuw i8, ptr %0, i64 216
  store double 0.000000e+00, ptr %3, align 8, !tbaa !3
  %4 = getelementptr inbounds nuw i8, ptr %0, i64 104
  store ptr @_ZL16vandg4_s_forward5PJ_LPP8PJconsts, ptr %4, align 8, !tbaa !36
  br label %14

5:                                                ; preds = %1
  %6 = tail call noundef ptr @_Z6pj_newv()
  %7 = icmp eq ptr %6, null
  br i1 %7, label %14, label %8

8:                                                ; preds = %5
  %9 = getelementptr inbounds nuw i8, ptr %6, i64 8
  store ptr @.str, ptr %9, align 8, !tbaa !37
  %10 = getelementptr inbounds nuw i8, ptr %6, i64 16
  store ptr @_ZL10des_vandg4, ptr %10, align 8, !tbaa !38
  %11 = getelementptr inbounds nuw i8, ptr %6, i64 360
  store i32 1, ptr %11, align 8, !tbaa !39
  %12 = getelementptr inbounds nuw i8, ptr %6, i64 380
  store i32 4, ptr %12, align 4, !tbaa !40
  %13 = getelementptr inbounds nuw i8, ptr %6, i64 384
  store i32 1, ptr %13, align 8, !tbaa !41
  br label %14

14:                                               ; preds = %5, %8, %2
  %.0 = phi ptr [ %0, %2 ], [ %6, %8 ], [ null, %5 ]
  ret ptr %.0
}